; Function Attrs: mustprogress uwtable
define void @_ZN8proxygen11HTTPMessage13setStatusCodeEt(ptr noundef nonnull align 8 dereferenceable(616) %this, i16 noundef zeroext %status) local_unnamed_addr #2 align 2 personality ptr @__gxx_personality_v0 {
entry:
  %status.addr = alloca i16, align 2
  %ref.tmp = alloca %"class.std::__cxx11::basic_string", align 8
  store i16 %status, ptr %status.addr, align 2
  %call = tail call noundef nonnull align 8 dereferenceable(72) ptr @_ZN8proxygen11HTTPMessage8responseEv(ptr noundef nonnull align 8 dereferenceable(616) %this)
  store i16 %status, ptr %call, align 8
  call void @_ZN5folly2toINSt7__cxx1112basic_stringIcSt11char_traitsIcESaIcEEEJtEEENSt9enable_ifIXaasr12IsSomeStringIT_EE5valueoonesZT0_Li1Entsr3std7is_sameIS8_19__type_pack_elementIXmisPvDpT0_ELi1EEJvSB_EEEE5valueES8_E4typeEDpRKSA_(ptr nonnull sret(%"class.std::__cxx11::basic_string") align 8 %ref.tmp, ptr noundef nonnull align 2 dereferenceable(2) %status.addr)
  %call2 = invoke noundef nonnull align 8 dereferenceable(72) ptr @_ZN8proxygen11HTTPMessage8responseEv(ptr noundef nonnull align 8 dereferenceable(616) %this)
          to label %invoke.cont unwind label %lpad

invoke.cont:                                      ; preds = %entry
  %statusStr_ = getelementptr inbounds i8, ptr %call2, i64 8
  %call3 = call noundef nonnull align 8 dereferenceable(32) ptr @_ZNSt7__cxx1112basic_stringIcSt11char_traitsIcESaIcEEaSEOS4_(ptr noundef nonnull align 8 dereferenceable(32) %statusStr_, ptr noundef nonnull align 8 dereferenceable(32) %ref.tmp) #23
  call void @_ZNSt7__cxx1112basic_stringIcSt11char_traitsIcESaIcEED1Ev(ptr noundef nonnull align 8 dereferenceable(32) %ref.tmp) #23
  ret void

lpad:                                             ; preds = %entry
  %0 = landingpad { ptr, i32 }
          cleanup
  call void @_ZNSt7__cxx1112basic_stringIcSt11char_traitsIcESaIcEED1Ev(ptr noundef nonnull align 8 dereferenceable(32) %ref.tmp) #23
  resume { ptr, i32 } %0
}